target datalayout = "e-m:e-p270:32:32-p271:32:32-p272:64:64-i64:64-i128:128-f80:128-n8:16:32:64-S128"
target triple = "x86_64-pc-linux-gnu"

%struct.AVFilterLink = type { ptr, ptr, ptr, ptr, i32, i32, i32, i32, %struct.AVRational, i32, i32, i32, %struct.AVChannelLayout, %struct.AVRational, ptr, i32, %struct.AVFilterFormatsConfig, %struct.AVFilterFormatsConfig }
%struct.AVChannelLayout = type { i32, i32, %union.anon, ptr }
%union.anon = type { i64 }
%struct.AVRational = type { i32, i32 }
%struct.AVFilterFormatsConfig = type { ptr, ptr, ptr, ptr, ptr }
%struct.AVFilterFormats = type { i32, ptr, i32, ptr }
%struct.AVFilterContext = type { ptr, ptr, ptr, ptr, ptr, i32, ptr, ptr, i32, ptr, ptr, i32, i32, ptr, ptr, ptr, ptr, i32, ptr, i32, i32 }

; Function Attrs: nounwind uwtable
define void @ff_formats_unref(ptr noundef %0) #0 {
  %2 = alloca ptr, align 8
  %3 = alloca i32, align 4
  %4 = alloca i32, align 4
  %5 = alloca i32, align 4
  store ptr %0, ptr %2, align 8, !tbaa !45
  br label %6

6:                                                ; preds = %1
  call void @llvm.lifetime.start.p0(i64 4, ptr %3) #7
  store i32 -1, ptr %3, align 4, !tbaa !21
  %7 = load ptr, ptr %2, align 8, !tbaa !45
  %8 = load ptr, ptr %7, align 8, !tbaa !27
  %9 = icmp ne ptr %8, null
  br i1 %9, label %11, label %10

10:                                               ; preds = %6
  store i32 1, ptr %4, align 4
  br label %94

11:                                               ; preds = %6
  br label %12

12:                                               ; preds = %11
  call void @llvm.lifetime.start.p0(i64 4, ptr %5) #7
  store i32 0, ptr %5, align 4, !tbaa !21
  br label %13

13:                                               ; preds = %34, %12
  %14 = load i32, ptr %5, align 4, !tbaa !21
  %15 = load ptr, ptr %2, align 8, !tbaa !45
  %16 = load ptr, ptr %15, align 8, !tbaa !27
  %17 = getelementptr inbounds nuw %struct.AVFilterFormats, ptr %16, i32 0, i32 2
  %18 = load i32, ptr %17, align 8, !tbaa !49
  %19 = icmp ult i32 %14, %18
  br i1 %19, label %20, label %37

20:                                               ; preds = %13
  %21 = load ptr, ptr %2, align 8, !tbaa !45
  %22 = load ptr, ptr %21, align 8, !tbaa !27
  %23 = getelementptr inbounds nuw %struct.AVFilterFormats, ptr %22, i32 0, i32 3
  %24 = load ptr, ptr %23, align 8, !tbaa !50
  %25 = load i32, ptr %5, align 4, !tbaa !21
  %26 = sext i32 %25 to i64
  %27 = getelementptr inbounds ptr, ptr %24, i64 %26
  %28 = load ptr, ptr %27, align 8, !tbaa !45
  %29 = load ptr, ptr %2, align 8, !tbaa !45
  %30 = icmp eq ptr %28, %29
  br i1 %30, label %31, label %33

31:                                               ; preds = %20
  %32 = load i32, ptr %5, align 4, !tbaa !21
  store i32 %32, ptr %3, align 4, !tbaa !21
  br label %37

33:                                               ; preds = %20
  br label %34

34:                                               ; preds = %33
  %35 = load i32, ptr %5, align 4, !tbaa !21
  %36 = add nsw i32 %35, 1
  store i32 %36, ptr %5, align 4, !tbaa !21
  br label %13, !llvm.loop !51

37:                                               ; preds = %31, %13
  call void @llvm.lifetime.end.p0(i64 4, ptr %5) #7
  br label %38

38:                                               ; preds = %37
  br label %39

39:                                               ; preds = %38
  %40 = load i32, ptr %3, align 4, !tbaa !21
  %41 = icmp sge i32 %40, 0
  br i1 %41, label %42, label %72

42:                                               ; preds = %39
  %43 = load ptr, ptr %2, align 8, !tbaa !45
  %44 = load ptr, ptr %43, align 8, !tbaa !27
  %45 = getelementptr inbounds nuw %struct.AVFilterFormats, ptr %44, i32 0, i32 3
  %46 = load ptr, ptr %45, align 8, !tbaa !50
  %47 = load i32, ptr %3, align 4, !tbaa !21
  %48 = sext i32 %47 to i64
  %49 = getelementptr inbounds ptr, ptr %46, i64 %48
  %50 = load ptr, ptr %2, align 8, !tbaa !45
  %51 = load ptr, ptr %50, align 8, !tbaa !27
  %52 = getelementptr inbounds nuw %struct.AVFilterFormats, ptr %51, i32 0, i32 3
  %53 = load ptr, ptr %52, align 8, !tbaa !50
  %54 = load i32, ptr %3, align 4, !tbaa !21
  %55 = sext i32 %54 to i64
  %56 = getelementptr inbounds ptr, ptr %53, i64 %55
  %57 = getelementptr inbounds ptr, ptr %56, i64 1
  %58 = load ptr, ptr %2, align 8, !tbaa !45
  %59 = load ptr, ptr %58, align 8, !tbaa !27
  %60 = getelementptr inbounds nuw %struct.AVFilterFormats, ptr %59, i32 0, i32 2
  %61 = load i32, ptr %60, align 8, !tbaa !49
  %62 = load i32, ptr %3, align 4, !tbaa !21
  %63 = sub i32 %61, %62
  %64 = sub i32 %63, 1
  %65 = zext i32 %64 to i64
  %66 = mul i64 8, %65
  call void @llvm.memmove.p0.p0.i64(ptr align 8 %49, ptr align 8 %57, i64 %66, i1 false)
  %67 = load ptr, ptr %2, align 8, !tbaa !45
  %68 = load ptr, ptr %67, align 8, !tbaa !27
  %69 = getelementptr inbounds nuw %struct.AVFilterFormats, ptr %68, i32 0, i32 2
  %70 = load i32, ptr %69, align 8, !tbaa !49
  %71 = add i32 %70, -1
  store i32 %71, ptr %69, align 8, !tbaa !49
  br label %72

72:                                               ; preds = %42, %39
  %73 = load ptr, ptr %2, align 8, !tbaa !45
  %74 = load ptr, ptr %73, align 8, !tbaa !27
  %75 = getelementptr inbounds nuw %struct.AVFilterFormats, ptr %74, i32 0, i32 2
  %76 = load i32, ptr %75, align 8, !tbaa !49
  %77 = icmp ne i32 %76, 0
  br i1 %77, label %92, label %78

78:                                               ; preds = %72
  br label %79

79:                                               ; preds = %78
  br label %80

80:                                               ; preds = %79
  br label %81

81:                                               ; preds = %80
  %82 = load ptr, ptr %2, align 8, !tbaa !45
  %83 = load ptr, ptr %82, align 8, !tbaa !27
  %84 = getelementptr inbounds nuw %struct.AVFilterFormats, ptr %83, i32 0, i32 1
  %85 = load ptr, ptr %84, align 8, !tbaa !32
  call void @av_free(ptr noundef %85)
  %86 = load ptr, ptr %2, align 8, !tbaa !45
  %87 = load ptr, ptr %86, align 8, !tbaa !27
  %88 = getelementptr inbounds nuw %struct.AVFilterFormats, ptr %87, i32 0, i32 3
  %89 = load ptr, ptr %88, align 8, !tbaa !50
  call void @av_free(ptr noundef %89)
  %90 = load ptr, ptr %2, align 8, !tbaa !45
  %91 = load ptr, ptr %90, align 8, !tbaa !27
  call void @av_free(ptr noundef %91)
  br label %92

92:                                               ; preds = %81, %72
  %93 = load ptr, ptr %2, align 8, !tbaa !45
  store ptr null, ptr %93, align 8, !tbaa !27
  store i32 0, ptr %4, align 4
  br label %94

94:                                               ; preds = %92, %10
  call void @llvm.lifetime.end.p0(i64 4, ptr %3) #7
  %95 = load i32, ptr %4, align 4
  switch i32 %95, label %98 [
    i32 0, label %96
    i32 1, label %97
  ]

96:                                               ; preds = %94
  br label %97

97:                                               ; preds = %94, %96
  ret void

98:                                               ; preds = %94
  unreachable
}

; Function Attrs: nounwind uwtable
define i32 @ff_formats_ref(ptr noundef %0, ptr noundef %1) #0 {
  %3 = alloca i32, align 4
  %4 = alloca ptr, align 8
  %5 = alloca ptr, align 8
  %6 = alloca ptr, align 8
  %7 = alloca i32, align 4
  store ptr %0, ptr %4, align 8, !tbaa !27
  store ptr %1, ptr %5, align 8, !tbaa !45
  call void @llvm.lifetime.start.p0(i64 8, ptr %6) #7
  %8 = load ptr, ptr %4, align 8, !tbaa !27
  %9 = icmp ne ptr %8, null
  br i1 %9, label %11, label %10

10:                                               ; preds = %2
  store i32 -12, ptr %3, align 4
  store i32 1, ptr %7, align 4
  br label %40

11:                                               ; preds = %2
  %12 = load ptr, ptr %4, align 8, !tbaa !27
  %13 = getelementptr inbounds nuw %struct.AVFilterFormats, ptr %12, i32 0, i32 3
  %14 = load ptr, ptr %13, align 8, !tbaa !50
  %15 = load ptr, ptr %4, align 8, !tbaa !27
  %16 = getelementptr inbounds nuw %struct.AVFilterFormats, ptr %15, i32 0, i32 2
  %17 = load i32, ptr %16, align 8, !tbaa !49
  %18 = add i32 %17, 1
  %19 = zext i32 %18 to i64
  %20 = call ptr @av_realloc_array(ptr noundef %14, i64 noundef 8, i64 noundef %19)
  store ptr %20, ptr %6, align 8, !tbaa !71
  %21 = load ptr, ptr %6, align 8, !tbaa !71
  %22 = icmp ne ptr %21, null
  br i1 %22, label %24, label %23

23:                                               ; preds = %11
  call void @ff_formats_unref(ptr noundef %4)
  store i32 -12, ptr %3, align 4
  store i32 1, ptr %7, align 4
  br label %40

24:                                               ; preds = %11
  %25 = load ptr, ptr %6, align 8, !tbaa !71
  %26 = load ptr, ptr %4, align 8, !tbaa !27
  %27 = getelementptr inbounds nuw %struct.AVFilterFormats, ptr %26, i32 0, i32 3
  store ptr %25, ptr %27, align 8, !tbaa !50
  %28 = load ptr, ptr %5, align 8, !tbaa !45
  %29 = load ptr, ptr %4, align 8, !tbaa !27
  %30 = getelementptr inbounds nuw %struct.AVFilterFormats, ptr %29, i32 0, i32 3
  %31 = load ptr, ptr %30, align 8, !tbaa !50
  %32 = load ptr, ptr %4, align 8, !tbaa !27
  %33 = getelementptr inbounds nuw %struct.AVFilterFormats, ptr %32, i32 0, i32 2
  %34 = load i32, ptr %33, align 8, !tbaa !49
  %35 = add i32 %34, 1
  store i32 %35, ptr %33, align 8, !tbaa !49
  %36 = zext i32 %34 to i64
  %37 = getelementptr inbounds nuw ptr, ptr %31, i64 %36
  store ptr %28, ptr %37, align 8, !tbaa !45
  %38 = load ptr, ptr %4, align 8, !tbaa !27
  %39 = load ptr, ptr %5, align 8, !tbaa !45
  store ptr %38, ptr %39, align 8, !tbaa !27
  store i32 0, ptr %3, align 4
  store i32 1, ptr %7, align 4
  br label %40

40:                                               ; preds = %24, %23, %10
  call void @llvm.lifetime.end.p0(i64 8, ptr %6) #7
  %41 = load i32, ptr %3, align 4
  ret i32 %41
}

; Function Attrs: nounwind uwtable
define i32 @ff_set_common_samplerates2(ptr noundef %0, ptr noundef %1, ptr noundef %2, ptr noundef %3) #0 {
  %5 = alloca i32, align 4
  %6 = alloca ptr, align 8
  %7 = alloca ptr, align 8
  %8 = alloca ptr, align 8
  %9 = alloca ptr, align 8
  %10 = alloca i32, align 4
  %11 = alloca i32, align 4
  %12 = alloca ptr, align 8
  %13 = alloca i32, align 4
  %14 = alloca i32, align 4
  %15 = alloca ptr, align 8
  %16 = alloca i32, align 4
  store ptr %0, ptr %6, align 8, !tbaa !74
  store ptr %1, ptr %7, align 8, !tbaa !107
  store ptr %2, ptr %8, align 8, !tbaa !107
  store ptr %3, ptr %9, align 8, !tbaa !27
  %17 = load ptr, ptr %9, align 8, !tbaa !27
  %18 = icmp ne ptr %17, null
  br i1 %18, label %20, label %19

19:                                               ; preds = %4
  store i32 -12, ptr %5, align 4
  br label %137

20:                                               ; preds = %4
  call void @llvm.lifetime.start.p0(i64 4, ptr %10) #7
  store i32 0, ptr %10, align 4, !tbaa !21
  br label %21

21:                                               ; preds = %70, %20
  %22 = load i32, ptr %10, align 4, !tbaa !21
  %23 = load ptr, ptr %6, align 8, !tbaa !74
  %24 = getelementptr inbounds nuw %struct.AVFilterContext, ptr %23, i32 0, i32 5
  %25 = load i32, ptr %24, align 8, !tbaa !75
  %26 = icmp ult i32 %22, %25
  br i1 %26, label %28, label %27

27:                                               ; preds = %21
  store i32 2, ptr %11, align 4
  br label %73

28:                                               ; preds = %21
  call void @llvm.lifetime.start.p0(i64 8, ptr %12) #7
  %29 = load ptr, ptr %6, align 8, !tbaa !74
  %30 = getelementptr inbounds nuw %struct.AVFilterContext, ptr %29, i32 0, i32 4
  %31 = load ptr, ptr %30, align 8, !tbaa !84
  %32 = load i32, ptr %10, align 4, !tbaa !21
  %33 = zext i32 %32 to i64
  %34 = getelementptr inbounds nuw ptr, ptr %31, i64 %33
  %35 = load ptr, ptr %34, align 8, !tbaa !4
  store ptr %35, ptr %12, align 8, !tbaa !4
  %36 = load ptr, ptr %7, align 8, !tbaa !107
  %37 = load i32, ptr %10, align 4, !tbaa !21
  %38 = zext i32 %37 to i64
  %39 = getelementptr inbounds nuw ptr, ptr %36, i64 %38
  %40 = load ptr, ptr %39, align 8, !tbaa !109
  %41 = getelementptr inbounds nuw %struct.AVFilterFormatsConfig, ptr %40, i32 0, i32 1
  %42 = load ptr, ptr %41, align 8, !tbaa !114
  %43 = icmp ne ptr %42, null
  br i1 %43, label %66, label %44

44:                                               ; preds = %28
  %45 = load ptr, ptr %12, align 8, !tbaa !4
  %46 = getelementptr inbounds nuw %struct.AVFilterLink, ptr %45, i32 0, i32 4
  %47 = load i32, ptr %46, align 8, !tbaa !9
  %48 = icmp eq i32 %47, 1
  br i1 %48, label %49, label %66

49:                                               ; preds = %44
  call void @llvm.lifetime.start.p0(i64 4, ptr %13) #7
  %50 = load ptr, ptr %9, align 8, !tbaa !27
  %51 = load ptr, ptr %7, align 8, !tbaa !107
  %52 = load i32, ptr %10, align 4, !tbaa !21
  %53 = zext i32 %52 to i64
  %54 = getelementptr inbounds nuw ptr, ptr %51, i64 %53
  %55 = load ptr, ptr %54, align 8, !tbaa !109
  %56 = getelementptr inbounds nuw %struct.AVFilterFormatsConfig, ptr %55, i32 0, i32 1
  %57 = call i32 @ff_formats_ref(ptr noundef %50, ptr noundef %56)
  store i32 %57, ptr %13, align 4, !tbaa !21
  %58 = load i32, ptr %13, align 4, !tbaa !21
  %59 = icmp slt i32 %58, 0
  br i1 %59, label %60, label %62

60:                                               ; preds = %49
  %61 = load i32, ptr %13, align 4, !tbaa !21
  store i32 %61, ptr %5, align 4
  store i32 1, ptr %11, align 4
  br label %63

62:                                               ; preds = %49
  store i32 0, ptr %11, align 4
  br label %63

63:                                               ; preds = %62, %60
  call void @llvm.lifetime.end.p0(i64 4, ptr %13) #7
  %64 = load i32, ptr %11, align 4
  switch i32 %64, label %67 [
    i32 0, label %65
  ]

65:                                               ; preds = %63
  br label %66

66:                                               ; preds = %65, %44, %28
  store i32 0, ptr %11, align 4
  br label %67

67:                                               ; preds = %66, %63
  call void @llvm.lifetime.end.p0(i64 8, ptr %12) #7
  %68 = load i32, ptr %11, align 4
  switch i32 %68, label %73 [
    i32 0, label %69
  ]

69:                                               ; preds = %67
  br label %70

70:                                               ; preds = %69
  %71 = load i32, ptr %10, align 4, !tbaa !21
  %72 = add i32 %71, 1
  store i32 %72, ptr %10, align 4, !tbaa !21
  br label %21, !llvm.loop !115

73:                                               ; preds = %67, %27
  call void @llvm.lifetime.end.p0(i64 4, ptr %10) #7
  %74 = load i32, ptr %11, align 4
  switch i32 %74, label %139 [
    i32 2, label %75
    i32 1, label %137
  ]

75:                                               ; preds = %73
  call void @llvm.lifetime.start.p0(i64 4, ptr %14) #7
  store i32 0, ptr %14, align 4, !tbaa !21
  br label %76

76:                                               ; preds = %125, %75
  %77 = load i32, ptr %14, align 4, !tbaa !21
  %78 = load ptr, ptr %6, align 8, !tbaa !74
  %79 = getelementptr inbounds nuw %struct.AVFilterContext, ptr %78, i32 0, i32 8
  %80 = load i32, ptr %79, align 8, !tbaa !87
  %81 = icmp ult i32 %77, %80
  br i1 %81, label %83, label %82

82:                                               ; preds = %76
  store i32 5, ptr %11, align 4
  br label %128

83:                                               ; preds = %76
  call void @llvm.lifetime.start.p0(i64 8, ptr %15) #7
  %84 = load ptr, ptr %6, align 8, !tbaa !74
  %85 = getelementptr inbounds nuw %struct.AVFilterContext, ptr %84, i32 0, i32 7
  %86 = load ptr, ptr %85, align 8, !tbaa !88
  %87 = load i32, ptr %14, align 4, !tbaa !21
  %88 = zext i32 %87 to i64
  %89 = getelementptr inbounds nuw ptr, ptr %86, i64 %88
  %90 = load ptr, ptr %89, align 8, !tbaa !4
  store ptr %90, ptr %15, align 8, !tbaa !4
  %91 = load ptr, ptr %8, align 8, !tbaa !107
  %92 = load i32, ptr %14, align 4, !tbaa !21
  %93 = zext i32 %92 to i64
  %94 = getelementptr inbounds nuw ptr, ptr %91, i64 %93
  %95 = load ptr, ptr %94, align 8, !tbaa !109
  %96 = getelementptr inbounds nuw %struct.AVFilterFormatsConfig, ptr %95, i32 0, i32 1
  %97 = load ptr, ptr %96, align 8, !tbaa !114
  %98 = icmp ne ptr %97, null
  br i1 %98, label %121, label %99

99:                                               ; preds = %83
  %100 = load ptr, ptr %15, align 8, !tbaa !4
  %101 = getelementptr inbounds nuw %struct.AVFilterLink, ptr %100, i32 0, i32 4
  %102 = load i32, ptr %101, align 8, !tbaa !9
  %103 = icmp eq i32 %102, 1
  br i1 %103, label %104, label %121

104:                                              ; preds = %99
  call void @llvm.lifetime.start.p0(i64 4, ptr %16) #7
  %105 = load ptr, ptr %9, align 8, !tbaa !27
  %106 = load ptr, ptr %8, align 8, !tbaa !107
  %107 = load i32, ptr %14, align 4, !tbaa !21
  %108 = zext i32 %107 to i64
  %109 = getelementptr inbounds nuw ptr, ptr %106, i64 %108
  %110 = load ptr, ptr %109, align 8, !tbaa !109
  %111 = getelementptr inbounds nuw %struct.AVFilterFormatsConfig, ptr %110, i32 0, i32 1
  %112 = call i32 @ff_formats_ref(ptr noundef %105, ptr noundef %111)
  store i32 %112, ptr %16, align 4, !tbaa !21
  %113 = load i32, ptr %16, align 4, !tbaa !21
  %114 = icmp slt i32 %113, 0
  br i1 %114, label %115, label %117

115:                                              ; preds = %104
  %116 = load i32, ptr %16, align 4, !tbaa !21
  store i32 %116, ptr %5, align 4
  store i32 1, ptr %11, align 4
  br label %118

117:                                              ; preds = %104
  store i32 0, ptr %11, align 4
  br label %118

118:                                              ; preds = %117, %115
  call void @llvm.lifetime.end.p0(i64 4, ptr %16) #7
  %119 = load i32, ptr %11, align 4
  switch i32 %119, label %122 [
    i32 0, label %120
  ]

120:                                              ; preds = %118
  br label %121

121:                                              ; preds = %120, %99, %83
  store i32 0, ptr %11, align 4
  br label %122

122:                                              ; preds = %121, %118
  call void @llvm.lifetime.end.p0(i64 8, ptr %15) #7
  %123 = load i32, ptr %11, align 4
  switch i32 %123, label %128 [
    i32 0, label %124
  ]

124:                                              ; preds = %122
  br label %125

125:                                              ; preds = %124
  %126 = load i32, ptr %14, align 4, !tbaa !21
  %127 = add i32 %126, 1
  store i32 %127, ptr %14, align 4, !tbaa !21
  br label %76, !llvm.loop !116

128:                                              ; preds = %122, %82
  call void @llvm.lifetime.end.p0(i64 4, ptr %14) #7
  %129 = load i32, ptr %11, align 4
  switch i32 %129, label %139 [
    i32 5, label %130
    i32 1, label %137
  ]

130:                                              ; preds = %128
  %131 = load ptr, ptr %9, align 8, !tbaa !27
  %132 = getelementptr inbounds nuw %struct.AVFilterFormats, ptr %131, i32 0, i32 2
  %133 = load i32, ptr %132, align 8, !tbaa !49
  %134 = icmp ne i32 %133, 0
  br i1 %134, label %136, label %135

135:                                              ; preds = %130
  call void @ff_formats_unref(ptr noundef %9)
  br label %136

136:                                              ; preds = %135, %130
  store i32 0, ptr %5, align 4
  br label %137

137:                                              ; preds = %136, %128, %73, %19
  %138 = load i32, ptr %5, align 4
  ret i32 %138

139:                                              ; preds = %128, %73
  unreachable
}